target datalayout = "e-m:e-p270:32:32-p271:32:32-p272:64:64-i64:64-i128:128-f80:128-n8:16:32:64-S128"
target triple = "x86_64-pc-linux-gnu"

%struct.cbs_st = type { ptr, i64 }
%struct.ssl_early_callback_ctx = type { ptr, ptr, i64, ptr, i64, ptr, i64, ptr, i64, ptr, i64 }
%struct.ssl_st = type { i32, i16, i16, ptr, ptr, ptr, ptr, ptr, i32, i32, ptr, ptr, i32, i32, ptr, ptr, ptr, ptr, ptr, ptr, ptr, ptr, i32, i32, [32 x i8], ptr, ptr, ptr, ptr, ptr, ptr, ptr, i64, %struct.crypto_ex_data_st, ptr, i32, i32, i32, i32, i16, ptr, i32, i64, ptr, ptr, ptr, ptr, ptr, ptr, i32, i32, ptr, ptr, i8, i8, i32 }
%struct.crypto_ex_data_st = type { ptr }
%struct.ssl_protocol_method_st = type { i8, ptr, ptr, ptr, ptr, ptr, ptr, ptr, ptr, ptr, ptr, ptr, i32, ptr, ptr }

; Function Attrs: nounwind uwtable
define hidden signext i8 @ssl_early_callback_init(ptr noundef %0) #0 {
  %2 = alloca i8, align 1
  %3 = alloca ptr, align 8
  %4 = alloca %struct.cbs_st, align 8
  %5 = alloca %struct.cbs_st, align 8
  %6 = alloca %struct.cbs_st, align 8
  %7 = alloca %struct.cbs_st, align 8
  %8 = alloca %struct.cbs_st, align 8
  %9 = alloca i32, align 4
  %10 = alloca %struct.cbs_st, align 8
  store ptr %0, ptr %3, align 8, !tbaa !6
  call void @llvm.lifetime.start.p0(i64 16, ptr %4) #8
  call void @llvm.lifetime.start.p0(i64 16, ptr %5) #8
  call void @llvm.lifetime.start.p0(i64 16, ptr %6) #8
  call void @llvm.lifetime.start.p0(i64 16, ptr %7) #8
  call void @llvm.lifetime.start.p0(i64 16, ptr %8) #8
  %11 = load ptr, ptr %3, align 8, !tbaa !6
  %12 = getelementptr inbounds nuw %struct.ssl_early_callback_ctx, ptr %11, i32 0, i32 1
  %13 = load ptr, ptr %12, align 8, !tbaa !11
  %14 = load ptr, ptr %3, align 8, !tbaa !6
  %15 = getelementptr inbounds nuw %struct.ssl_early_callback_ctx, ptr %14, i32 0, i32 2
  %16 = load i64, ptr %15, align 8, !tbaa !16
  call void @CBS_init(ptr noundef %4, ptr noundef %13, i64 noundef %16)
  %17 = call i32 @CBS_skip(ptr noundef %4, i64 noundef 2)
  %18 = icmp ne i32 %17, 0
  br i1 %18, label %19, label %25

19:                                               ; preds = %1
  %20 = call i32 @CBS_skip(ptr noundef %4, i64 noundef 32)
  %21 = icmp ne i32 %20, 0
  br i1 %21, label %22, label %25

22:                                               ; preds = %19
  %23 = call i32 @CBS_get_u8_length_prefixed(ptr noundef %4, ptr noundef %5)
  %24 = icmp ne i32 %23, 0
  br i1 %24, label %26, label %25

25:                                               ; preds = %22, %19, %1
  store i8 0, ptr %2, align 1
  store i32 1, ptr %9, align 4
  br label %104

26:                                               ; preds = %22
  %27 = call ptr @CBS_data(ptr noundef %5)
  %28 = load ptr, ptr %3, align 8, !tbaa !6
  %29 = getelementptr inbounds nuw %struct.ssl_early_callback_ctx, ptr %28, i32 0, i32 3
  store ptr %27, ptr %29, align 8, !tbaa !17
  %30 = call i64 @CBS_len(ptr noundef %5)
  %31 = load ptr, ptr %3, align 8, !tbaa !6
  %32 = getelementptr inbounds nuw %struct.ssl_early_callback_ctx, ptr %31, i32 0, i32 4
  store i64 %30, ptr %32, align 8, !tbaa !18
  %33 = load ptr, ptr %3, align 8, !tbaa !6
  %34 = getelementptr inbounds nuw %struct.ssl_early_callback_ctx, ptr %33, i32 0, i32 0
  %35 = load ptr, ptr %34, align 8, !tbaa !19
  %36 = getelementptr inbounds nuw %struct.ssl_st, ptr %35, i32 0, i32 3
  %37 = load ptr, ptr %36, align 8, !tbaa !20
  %38 = getelementptr inbounds nuw %struct.ssl_protocol_method_st, ptr %37, i32 0, i32 0
  %39 = load i8, ptr %38, align 8, !tbaa !44
  %40 = icmp ne i8 %39, 0
  br i1 %40, label %41, label %49

41:                                               ; preds = %26
  call void @llvm.lifetime.start.p0(i64 16, ptr %10) #8
  %42 = call i32 @CBS_get_u8_length_prefixed(ptr noundef %4, ptr noundef %10)
  %43 = icmp ne i32 %42, 0
  br i1 %43, label %45, label %44

44:                                               ; preds = %41
  store i8 0, ptr %2, align 1
  store i32 1, ptr %9, align 4
  br label %46

45:                                               ; preds = %41
  store i32 0, ptr %9, align 4
  br label %46

46:                                               ; preds = %45, %44
  call void @llvm.lifetime.end.p0(i64 16, ptr %10) #8
  %47 = load i32, ptr %9, align 4
  switch i32 %47, label %104 [
    i32 0, label %48
  ]

48:                                               ; preds = %46
  br label %49

49:                                               ; preds = %48, %26
  %50 = call i32 @CBS_get_u16_length_prefixed(ptr noundef %4, ptr noundef %6)
  %51 = icmp ne i32 %50, 0
  br i1 %51, label %52, label %59

52:                                               ; preds = %49
  %53 = call i64 @CBS_len(ptr noundef %6)
  %54 = icmp ult i64 %53, 2
  br i1 %54, label %59, label %55

55:                                               ; preds = %52
  %56 = call i64 @CBS_len(ptr noundef %6)
  %57 = and i64 %56, 1
  %58 = icmp ne i64 %57, 0
  br i1 %58, label %59, label %60

59:                                               ; preds = %55, %52, %49
  store i8 0, ptr %2, align 1
  store i32 1, ptr %9, align 4
  br label %104

60:                                               ; preds = %55
  %61 = call ptr @CBS_data(ptr noundef %6)
  %62 = load ptr, ptr %3, align 8, !tbaa !6
  %63 = getelementptr inbounds nuw %struct.ssl_early_callback_ctx, ptr %62, i32 0, i32 5
  store ptr %61, ptr %63, align 8, !tbaa !46
  %64 = call i64 @CBS_len(ptr noundef %6)
  %65 = load ptr, ptr %3, align 8, !tbaa !6
  %66 = getelementptr inbounds nuw %struct.ssl_early_callback_ctx, ptr %65, i32 0, i32 6
  store i64 %64, ptr %66, align 8, !tbaa !47
  %67 = call i32 @CBS_get_u8_length_prefixed(ptr noundef %4, ptr noundef %7)
  %68 = icmp ne i32 %67, 0
  br i1 %68, label %69, label %72

69:                                               ; preds = %60
  %70 = call i64 @CBS_len(ptr noundef %7)
  %71 = icmp ult i64 %70, 1
  br i1 %71, label %72, label %73

72:                                               ; preds = %69, %60
  store i8 0, ptr %2, align 1
  store i32 1, ptr %9, align 4
  br label %104

73:                                               ; preds = %69
  %74 = call ptr @CBS_data(ptr noundef %7)
  %75 = load ptr, ptr %3, align 8, !tbaa !6
  %76 = getelementptr inbounds nuw %struct.ssl_early_callback_ctx, ptr %75, i32 0, i32 7
  store ptr %74, ptr %76, align 8, !tbaa !48
  %77 = call i64 @CBS_len(ptr noundef %7)
  %78 = load ptr, ptr %3, align 8, !tbaa !6
  %79 = getelementptr inbounds nuw %struct.ssl_early_callback_ctx, ptr %78, i32 0, i32 8
  store i64 %77, ptr %79, align 8, !tbaa !49
  %80 = call i64 @CBS_len(ptr noundef %4)
  %81 = icmp eq i64 %80, 0
  br i1 %81, label %82, label %87

82:                                               ; preds = %73
  %83 = load ptr, ptr %3, align 8, !tbaa !6
  %84 = getelementptr inbounds nuw %struct.ssl_early_callback_ctx, ptr %83, i32 0, i32 9
  store ptr null, ptr %84, align 8, !tbaa !50
  %85 = load ptr, ptr %3, align 8, !tbaa !6
  %86 = getelementptr inbounds nuw %struct.ssl_early_callback_ctx, ptr %85, i32 0, i32 10
  store i64 0, ptr %86, align 8, !tbaa !51
  store i8 1, ptr %2, align 1
  store i32 1, ptr %9, align 4
  br label %104

87:                                               ; preds = %73
  %88 = call i32 @CBS_get_u16_length_prefixed(ptr noundef %4, ptr noundef %8)
  %89 = icmp ne i32 %88, 0
  br i1 %89, label %90, label %96

90:                                               ; preds = %87
  %91 = call i32 @tls1_check_duplicate_extensions(ptr noundef %8)
  %92 = icmp ne i32 %91, 0
  br i1 %92, label %93, label %96

93:                                               ; preds = %90
  %94 = call i64 @CBS_len(ptr noundef %4)
  %95 = icmp ne i64 %94, 0
  br i1 %95, label %96, label %97

96:                                               ; preds = %93, %90, %87
  store i8 0, ptr %2, align 1
  store i32 1, ptr %9, align 4
  br label %104

97:                                               ; preds = %93
  %98 = call ptr @CBS_data(ptr noundef %8)
  %99 = load ptr, ptr %3, align 8, !tbaa !6
  %100 = getelementptr inbounds nuw %struct.ssl_early_callback_ctx, ptr %99, i32 0, i32 9
  store ptr %98, ptr %100, align 8, !tbaa !50
  %101 = call i64 @CBS_len(ptr noundef %8)
  %102 = load ptr, ptr %3, align 8, !tbaa !6
  %103 = getelementptr inbounds nuw %struct.ssl_early_callback_ctx, ptr %102, i32 0, i32 10
  store i64 %101, ptr %103, align 8, !tbaa !51
  store i8 1, ptr %2, align 1
  store i32 1, ptr %9, align 4
  br label %104

104:                                              ; preds = %97, %96, %82, %72, %59, %46, %25
  call void @llvm.lifetime.end.p0(i64 16, ptr %8) #8
  call void @llvm.lifetime.end.p0(i64 16, ptr %7) #8
  call void @llvm.lifetime.end.p0(i64 16, ptr %6) #8
  call void @llvm.lifetime.end.p0(i64 16, ptr %5) #8
  call void @llvm.lifetime.end.p0(i64 16, ptr %4) #8
  %105 = load i8, ptr %2, align 1
  ret i8 %105
}