; Function Attrs: nounwind uwtable
define hidden signext range(i8 0, 2) i8 @ssl_early_callback_init(ptr noundef captures(none) %0) local_unnamed_addr #0 {
  %2 = alloca %struct.cbs_st, align 8
  %3 = alloca %struct.cbs_st, align 8
  %4 = alloca %struct.cbs_st, align 8
  %5 = alloca %struct.cbs_st, align 8
  %6 = alloca %struct.cbs_st, align 8
  %7 = alloca %struct.cbs_st, align 8
  call void @llvm.lifetime.start.p0(i64 16, ptr nonnull %2) #21
  call void @llvm.lifetime.start.p0(i64 16, ptr nonnull %3) #21
  call void @llvm.lifetime.start.p0(i64 16, ptr nonnull %4) #21
  call void @llvm.lifetime.start.p0(i64 16, ptr nonnull %5) #21
  call void @llvm.lifetime.start.p0(i64 16, ptr nonnull %6) #21
  %8 = getelementptr inbounds nuw i8, ptr %0, i64 8
  %9 = load ptr, ptr %8, align 8, !tbaa !6
  %10 = getelementptr inbounds nuw i8, ptr %0, i64 16
  %11 = load i64, ptr %10, align 8, !tbaa !14
  call void @CBS_init(ptr noundef nonnull %2, ptr noundef %9, i64 noundef %11) #21
  %12 = call i32 @CBS_skip(ptr noundef nonnull %2, i64 noundef 2) #21
  %.not = icmp eq i32 %12, 0
  br i1 %.not, label %65, label %13

13:                                               ; preds = %1
  %14 = call i32 @CBS_skip(ptr noundef nonnull %2, i64 noundef 32) #21
  %.not15 = icmp eq i32 %14, 0
  br i1 %.not15, label %65, label %15

15:                                               ; preds = %13
  %16 = call i32 @CBS_get_u8_length_prefixed(ptr noundef nonnull %2, ptr noundef nonnull %3) #21
  %.not16 = icmp eq i32 %16, 0
  br i1 %.not16, label %65, label %17

17:                                               ; preds = %15
  %18 = call ptr @CBS_data(ptr noundef nonnull %3) #21
  %19 = getelementptr inbounds nuw i8, ptr %0, i64 24
  store ptr %18, ptr %19, align 8, !tbaa !15
  %20 = call i64 @CBS_len(ptr noundef nonnull %3) #21
  %21 = getelementptr inbounds nuw i8, ptr %0, i64 32
  store i64 %20, ptr %21, align 8, !tbaa !16
  %22 = load ptr, ptr %0, align 8, !tbaa !17
  %23 = getelementptr inbounds nuw i8, ptr %22, i64 8
  %24 = load ptr, ptr %23, align 8, !tbaa !18
  %25 = load i8, ptr %24, align 8, !tbaa !42
  %.not17 = icmp eq i8 %25, 0
  br i1 %.not17, label %28, label %26

26:                                               ; preds = %17
  call void @llvm.lifetime.start.p0(i64 16, ptr nonnull %7) #21
  %27 = call i32 @CBS_get_u8_length_prefixed(ptr noundef nonnull %2, ptr noundef nonnull %7) #21
  %.not18.not = icmp eq i32 %27, 0
  call void @llvm.lifetime.end.p0(i64 16, ptr nonnull %7) #21
  br i1 %.not18.not, label %65, label %28

28:                                               ; preds = %26, %17
  %29 = call i32 @CBS_get_u16_length_prefixed(ptr noundef nonnull %2, ptr noundef nonnull %4) #21
  %.not19 = icmp eq i32 %29, 0
  br i1 %.not19, label %65, label %30

30:                                               ; preds = %28
  %31 = call i64 @CBS_len(ptr noundef nonnull %4) #21
  %32 = icmp ult i64 %31, 2
  br i1 %32, label %65, label %33

33:                                               ; preds = %30
  %34 = call i64 @CBS_len(ptr noundef nonnull %4) #21
  %35 = and i64 %34, 1
  %.not20 = icmp eq i64 %35, 0
  br i1 %.not20, label %36, label %65

36:                                               ; preds = %33
  %37 = call ptr @CBS_data(ptr noundef nonnull %4) #21
  %38 = getelementptr inbounds nuw i8, ptr %0, i64 40
  store ptr %37, ptr %38, align 8, !tbaa !44
  %39 = call i64 @CBS_len(ptr noundef nonnull %4) #21
  %40 = getelementptr inbounds nuw i8, ptr %0, i64 48
  store i64 %39, ptr %40, align 8, !tbaa !45
  %41 = call i32 @CBS_get_u8_length_prefixed(ptr noundef nonnull %2, ptr noundef nonnull %5) #21
  %.not21 = icmp eq i32 %41, 0
  br i1 %.not21, label %65, label %42

42:                                               ; preds = %36
  %43 = call i64 @CBS_len(ptr noundef nonnull %5) #21
  %44 = icmp eq i64 %43, 0
  br i1 %44, label %65, label %45

45:                                               ; preds = %42
  %46 = call ptr @CBS_data(ptr noundef nonnull %5) #21
  %47 = getelementptr inbounds nuw i8, ptr %0, i64 56
  store ptr %46, ptr %47, align 8, !tbaa !46
  %48 = call i64 @CBS_len(ptr noundef nonnull %5) #21
  %49 = getelementptr inbounds nuw i8, ptr %0, i64 64
  store i64 %48, ptr %49, align 8, !tbaa !47
  %50 = call i64 @CBS_len(ptr noundef nonnull %2) #21
  %51 = icmp eq i64 %50, 0
  br i1 %51, label %52, label %54

52:                                               ; preds = %45
  %53 = getelementptr inbounds nuw i8, ptr %0, i64 72
  call void @llvm.memset.p0.i64(ptr noundef nonnull align 8 dereferenceable(16) %53, i8 0, i64 16, i1 false)
  br label %65

54:                                               ; preds = %45
  %55 = call i32 @CBS_get_u16_length_prefixed(ptr noundef nonnull %2, ptr noundef nonnull %6) #21
  %.not22 = icmp eq i32 %55, 0
  br i1 %.not22, label %65, label %56

56:                                               ; preds = %54
  %57 = call fastcc i32 @tls1_check_duplicate_extensions(ptr noundef %6)
  %.not23 = icmp eq i32 %57, 0
  br i1 %.not23, label %65, label %58

58:                                               ; preds = %56
  %59 = call i64 @CBS_len(ptr noundef nonnull %2) #21
  %.not24 = icmp eq i64 %59, 0
  br i1 %.not24, label %60, label %65

60:                                               ; preds = %58
  %61 = call ptr @CBS_data(ptr noundef nonnull %6) #21
  %62 = getelementptr inbounds nuw i8, ptr %0, i64 72
  store ptr %61, ptr %62, align 8, !tbaa !48
  %63 = call i64 @CBS_len(ptr noundef nonnull %6) #21
  %64 = getelementptr inbounds nuw i8, ptr %0, i64 80
  store i64 %63, ptr %64, align 8, !tbaa !49
  br label %65

65:                                               ; preds = %54, %56, %58, %36, %42, %28, %30, %33, %1, %13, %15, %26, %60, %52
  %.014 = phi i8 [ 1, %52 ], [ 1, %60 ], [ 0, %26 ], [ 0, %15 ], [ 0, %13 ], [ 0, %1 ], [ 0, %33 ], [ 0, %30 ], [ 0, %28 ], [ 0, %42 ], [ 0, %36 ], [ 0, %58 ], [ 0, %56 ], [ 0, %54 ]
  call void @llvm.lifetime.end.p0(i64 16, ptr nonnull %6) #21
  call void @llvm.lifetime.end.p0(i64 16, ptr nonnull %5) #21
  call void @llvm.lifetime.end.p0(i64 16, ptr nonnull %4) #21
  call void @llvm.lifetime.end.p0(i64 16, ptr nonnull %3) #21
  call void @llvm.lifetime.end.p0(i64 16, ptr nonnull %2) #21
  ret i8 %.014
}